target datalayout = "e-m:e-p270:32:32-p271:32:32-p272:64:64-i64:64-i128:128-f80:128-n8:16:32:64-S128"
target triple = "x86_64-pc-linux-gnu"

@bio_err = external global ptr, align 8
@.str.25 = private unnamed_addr constant [41 x i8] c"error: unable to load %s from file '%s'\0A\00", align 1
@.str.26 = private unnamed_addr constant [51 x i8] c"Warning: error while verifying CSR self-signature\0A\00", align 1
@.str.27 = private unnamed_addr constant [57 x i8] c"Warning: CSR self-signature does not match the contents\0A\00", align 1

; Function Attrs: nounwind uwtable
define dso_local ptr @load_csr_autofmt(ptr noundef %0, i32 noundef %1, ptr noundef %2, ptr noundef %3) #0 {
  %5 = alloca ptr, align 8
  %6 = alloca ptr, align 8
  %7 = alloca i32, align 4
  %8 = alloca ptr, align 8
  %9 = alloca ptr, align 8
  %10 = alloca ptr, align 8
  %11 = alloca ptr, align 8
  %12 = alloca ptr, align 8
  %13 = alloca i32, align 4
  %14 = alloca i32, align 4
  store ptr %0, ptr %6, align 8, !tbaa !9
  store i32 %1, ptr %7, align 4, !tbaa !25
  store ptr %2, ptr %8, align 8, !tbaa !84
  store ptr %3, ptr %9, align 8, !tbaa !9
  call void @llvm.lifetime.start.p0(i64 8, ptr %10) #12
  %15 = load i32, ptr %7, align 4, !tbaa !25
  %16 = icmp ne i32 %15, 0
  br i1 %16, label %17, label %22

17:                                               ; preds = %4
  %18 = load ptr, ptr %6, align 8, !tbaa !9
  %19 = load i32, ptr %7, align 4, !tbaa !25
  %20 = load ptr, ptr %9, align 8, !tbaa !9
  %21 = call ptr @load_csr(ptr noundef %18, i32 noundef %19, ptr noundef %20)
  store ptr %21, ptr %10, align 8, !tbaa !82
  br label %41

22:                                               ; preds = %4
  call void @llvm.lifetime.start.p0(i64 8, ptr %11) #12
  %23 = load ptr, ptr @bio_err, align 8, !tbaa !35
  store ptr %23, ptr %11, align 8, !tbaa !35
  store ptr null, ptr @bio_err, align 8, !tbaa !35
  %24 = load ptr, ptr %6, align 8, !tbaa !9
  %25 = call ptr @load_csr(ptr noundef %24, i32 noundef 32773, ptr noundef null)
  store ptr %25, ptr %10, align 8, !tbaa !82
  %26 = load ptr, ptr %11, align 8, !tbaa !35
  store ptr %26, ptr @bio_err, align 8, !tbaa !35
  %27 = load ptr, ptr %10, align 8, !tbaa !82
  %28 = icmp eq ptr %27, null
  br i1 %28, label %29, label %32

29:                                               ; preds = %22
  call void @ERR_clear_error()
  %30 = load ptr, ptr %6, align 8, !tbaa !9
  %31 = call ptr @load_csr(ptr noundef %30, i32 noundef 4, ptr noundef null)
  store ptr %31, ptr %10, align 8, !tbaa !82
  br label %32

32:                                               ; preds = %29, %22
  %33 = load ptr, ptr %10, align 8, !tbaa !82
  %34 = icmp eq ptr %33, null
  br i1 %34, label %35, label %40

35:                                               ; preds = %32
  %36 = load ptr, ptr @bio_err, align 8, !tbaa !35
  %37 = load ptr, ptr %9, align 8, !tbaa !9
  %38 = load ptr, ptr %6, align 8, !tbaa !9
  %39 = call i32 (ptr, ptr, ...) @BIO_printf(ptr noundef %36, ptr noundef @.str.25, ptr noundef %37, ptr noundef %38)
  br label %40

40:                                               ; preds = %35, %32
  call void @llvm.lifetime.end.p0(i64 8, ptr %11) #12
  br label %41

41:                                               ; preds = %40, %17
  %42 = load ptr, ptr %10, align 8, !tbaa !82
  %43 = icmp ne ptr %42, null
  br i1 %43, label %44, label %68

44:                                               ; preds = %41
  call void @llvm.lifetime.start.p0(i64 8, ptr %12) #12
  %45 = load ptr, ptr %10, align 8, !tbaa !82
  %46 = call ptr @X509_REQ_get0_pubkey(ptr noundef %45)
  store ptr %46, ptr %12, align 8, !tbaa !67
  call void @llvm.lifetime.start.p0(i64 4, ptr %13) #12
  %47 = load ptr, ptr %10, align 8, !tbaa !82
  %48 = load ptr, ptr %12, align 8, !tbaa !67
  %49 = load ptr, ptr %8, align 8, !tbaa !84
  %50 = call i32 @do_X509_REQ_verify(ptr noundef %47, ptr noundef %48, ptr noundef %49)
  store i32 %50, ptr %13, align 4, !tbaa !25
  %51 = load ptr, ptr %12, align 8, !tbaa !67
  %52 = icmp eq ptr %51, null
  br i1 %52, label %56, label %53

53:                                               ; preds = %44
  %54 = load i32, ptr %13, align 4, !tbaa !25
  %55 = icmp slt i32 %54, 0
  br i1 %55, label %56, label %59

56:                                               ; preds = %53, %44
  %57 = load ptr, ptr @bio_err, align 8, !tbaa !35
  %58 = call i32 @BIO_puts(ptr noundef %57, ptr noundef @.str.26)
  br label %66

59:                                               ; preds = %53
  %60 = load i32, ptr %13, align 4, !tbaa !25
  %61 = icmp eq i32 %60, 0
  br i1 %61, label %62, label %65

62:                                               ; preds = %59
  %63 = load ptr, ptr @bio_err, align 8, !tbaa !35
  %64 = call i32 @BIO_puts(ptr noundef %63, ptr noundef @.str.27)
  br label %65

65:                                               ; preds = %62, %59
  br label %66

66:                                               ; preds = %65, %56
  %67 = load ptr, ptr %10, align 8, !tbaa !82
  store ptr %67, ptr %5, align 8
  store i32 1, ptr %14, align 4
  call void @llvm.lifetime.end.p0(i64 4, ptr %13) #12
  call void @llvm.lifetime.end.p0(i64 8, ptr %12) #12
  br label %70

68:                                               ; preds = %41
  %69 = load ptr, ptr %10, align 8, !tbaa !82
  store ptr %69, ptr %5, align 8
  store i32 1, ptr %14, align 4
  br label %70

70:                                               ; preds = %68, %66
  call void @llvm.lifetime.end.p0(i64 8, ptr %10) #12
  %71 = load ptr, ptr %5, align 8
  ret ptr %71
}