; Function Attrs: nounwind uwtable
define dso_local noundef ptr @load_csr_autofmt(ptr noundef %0, i32 noundef %1, ptr noundef %2, ptr noundef %3) local_unnamed_addr #0 {
  %.not = icmp eq i32 %1, 0
  br i1 %.not, label %5, label %14

5:                                                ; preds = %4
  %6 = load ptr, ptr @bio_err, align 8, !tbaa !26
  store ptr null, ptr @bio_err, align 8, !tbaa !26
  %7 = tail call ptr @load_csr(ptr noundef %0, i32 noundef 32773, ptr noundef null)
  store ptr %6, ptr @bio_err, align 8, !tbaa !26
  %8 = icmp eq ptr %7, null
  br i1 %8, label %9, label %.thread27

9:                                                ; preds = %5
  tail call void @ERR_clear_error() #27
  %10 = tail call ptr @load_csr(ptr noundef %0, i32 noundef 4, ptr noundef null)
  %11 = icmp eq ptr %10, null
  br i1 %11, label %.thread32, label %.thread27

.thread32:                                        ; preds = %9
  %12 = load ptr, ptr @bio_err, align 8, !tbaa !26
  %13 = tail call i32 (ptr, ptr, ...) @BIO_printf(ptr noundef %12, ptr noundef nonnull @.str.25, ptr noundef %3, ptr noundef %0) #27
  br label %28

14:                                               ; preds = %4
  %15 = tail call ptr @load_csr(ptr noundef %0, i32 noundef %1, ptr noundef %3)
  %.not25 = icmp eq ptr %15, null
  br i1 %.not25, label %28, label %.thread27

.thread27:                                        ; preds = %5, %9, %14
  %.02230 = phi ptr [ %15, %14 ], [ %10, %9 ], [ %7, %5 ]
  %16 = tail call ptr @X509_REQ_get0_pubkey(ptr noundef nonnull %.02230) #27
  %17 = tail call i32 @do_X509_REQ_verify(ptr noundef nonnull %.02230, ptr noundef %16, ptr noundef %2)
  %18 = icmp eq ptr %16, null
  %19 = icmp slt i32 %17, 0
  %or.cond = select i1 %18, i1 true, i1 %19
  br i1 %or.cond, label %20, label %23

20:                                               ; preds = %.thread27
  %21 = load ptr, ptr @bio_err, align 8, !tbaa !26
  %22 = tail call i32 @BIO_puts(ptr noundef %21, ptr noundef nonnull @.str.26) #27
  br label %28

23:                                               ; preds = %.thread27
  %24 = icmp eq i32 %17, 0
  br i1 %24, label %25, label %28

25:                                               ; preds = %23
  %26 = load ptr, ptr @bio_err, align 8, !tbaa !26
  %27 = tail call i32 @BIO_puts(ptr noundef %26, ptr noundef nonnull @.str.27) #27
  br label %28

28:                                               ; preds = %.thread32, %14, %20, %25, %23
  %.02231 = phi ptr [ null, %14 ], [ %.02230, %20 ], [ %.02230, %25 ], [ %.02230, %23 ], [ null, %.thread32 ]
  ret ptr %.02231
}